ARM GAS  C:\Users\parni\AppData\Local\Temp\ccI4AHnY.s 			page 1


   1              		.cpu cortex-m4
   2              		.arch armv7e-m
   3              		.fpu fpv4-sp-d16
   4              		.eabi_attribute 27, 1
   5              		.eabi_attribute 28, 1
   6              		.eabi_attribute 20, 1
   7              		.eabi_attribute 21, 1
   8              		.eabi_attribute 23, 3
   9              		.eabi_attribute 24, 1
  10              		.eabi_attribute 25, 1
  11              		.eabi_attribute 26, 1
  12              		.eabi_attribute 30, 1
  13              		.eabi_attribute 34, 1
  14              		.eabi_attribute 18, 4
  15              		.file	"main.c"
  16              		.text
  17              	.Ltext0:
  18              		.cfi_sections	.debug_frame
  19              		.file 1 "Core/Src/main.c"
  20              		.section	.text.main,"ax",%progbits
  21              		.align	1
  22              		.global	main
  23              		.syntax unified
  24              		.thumb
  25              		.thumb_func
  27              	main:
  28              	.LFB130:
   1:Core/Src/main.c **** 
   2:Core/Src/main.c **** #include "init.h"  // –ü–æ–¥–∫–ª—é—á–∞–µ–º –∑–∞–≥–æ–ª–æ–≤–æ—á–Ω—ã–π —Ñ–∞–π–ª —Å –æ–±—ä—è–≤–ª–µ–Ω–∏—
   3:Core/Src/main.c **** #include "utils.h"
   4:Core/Src/main.c **** 
   5:Core/Src/main.c **** uint8_t pwm_state_pa8 = 0;
   6:Core/Src/main.c **** uint8_t pwm_state_pa9 = 0;
   7:Core/Src/main.c **** uint16_t left_encoder_ticks = 0;
   8:Core/Src/main.c **** uint16_t right_encoder_ticks = 0;
   9:Core/Src/main.c **** uint32_t left_delay_counter = 0;
  10:Core/Src/main.c **** uint32_t right_delay_counter = 0;
  11:Core/Src/main.c **** 
  12:Core/Src/main.c **** uint32_t millis_counter = 0;
  13:Core/Src/main.c **** 
  14:Core/Src/main.c **** uint16_t button_delay_counter = 0;
  15:Core/Src/main.c **** bool status_button = 0;
  16:Core/Src/main.c **** 
  17:Core/Src/main.c **** int main(void)
  18:Core/Src/main.c **** {
  29              		.loc 1 18 1 view -0
  30              		.cfi_startproc
  31              		@ Volatile: function does not return.
  32              		@ args = 0, pretend = 0, frame = 0
  33              		@ frame_needed = 0, uses_anonymous_args = 0
  34 0000 08B5     		push	{r3, lr}
  35              	.LCFI0:
  36              		.cfi_def_cfa_offset 8
  37              		.cfi_offset 3, -8
  38              		.cfi_offset 14, -4
  19:Core/Src/main.c ****     SET_BIT(RCC->AHB1ENR, RCC_AHB1ENR_GPIOBEN | RCC_AHB1ENR_GPIOCEN);
  39              		.loc 1 19 5 view .LVU1
ARM GAS  C:\Users\parni\AppData\Local\Temp\ccI4AHnY.s 			page 2


  40 0002 114A     		ldr	r2, .L4
  41 0004 136B     		ldr	r3, [r2, #48]
  42 0006 43F00603 		orr	r3, r3, #6
  43 000a 1363     		str	r3, [r2, #48]
  20:Core/Src/main.c ****     SET_BIT(GPIOC->PUPDR, GPIO_PUPDR_PUPDR12_0);
  44              		.loc 1 20 5 view .LVU2
  45 000c A2F54052 		sub	r2, r2, #12288
  46 0010 D368     		ldr	r3, [r2, #12]
  47 0012 43F08073 		orr	r3, r3, #16777216
  48 0016 D360     		str	r3, [r2, #12]
  21:Core/Src/main.c **** 
  22:Core/Src/main.c ****     GPIO_Init_Ports();
  49              		.loc 1 22 5 view .LVU3
  50 0018 FFF7FEFF 		bl	GPIO_Init_Ports
  51              	.LVL0:
  23:Core/Src/main.c **** 
  24:Core/Src/main.c ****     // –ò–Ω–∏—Ü–∏–∞–ª–∏–∑–∏—Ä—É–µ–º –ø—Ä–µ—Ä—ã–≤–∞–Ω–∏—è
  25:Core/Src/main.c ****     ITR_Init();
  52              		.loc 1 25 5 view .LVU4
  53 001c FFF7FEFF 		bl	ITR_Init
  54              	.LVL1:
  26:Core/Src/main.c ****     // –ò–Ω–∏—Ü–∏–∞–ª–∏–∑–∏—Ä—É–µ–º —Ç–∞–∫—Ç–∏—Ä–æ–≤–∞–Ω–∏–µ —Å–∏—Å—Ç–µ–º—ã (RCC)
  27:Core/Src/main.c ****     RCC_Init();            // –ù–∞—Å—Ç—Ä–∞–∏–≤–∞–µ—Ç —Ç–∞–∫—Ç–æ–≤—É—é —á–∞—Å—Ç–æ—Ç—É 96 –ú–ì—Ü
  55              		.loc 1 27 5 view .LVU5
  56 0020 FFF7FEFF 		bl	RCC_Init
  57              	.LVL2:
  28:Core/Src/main.c ****     
  29:Core/Src/main.c ****     // –ò–Ω–∏—Ü–∏–∞–ª–∏–∑–∏—Ä—É–µ–º SysTick (–æ–ø—Ü–∏–æ–Ω–∞–ª—å–Ω–æ, –¥–ª—è –∑–∞–¥–µ—Ä–∂–µ–∫)
  30:Core/Src/main.c ****     SysTick_Init();        // –ù–∞—Å—Ç—Ä–∞–∏–≤–∞–µ—Ç —Å–∏—Å—Ç–µ–º–Ω—ã–π —Ç–∞–π–º–µ—Ä –Ω–∞ 1 –∫–ì—Ü
  58              		.loc 1 30 5 view .LVU6
  59 0024 FFF7FEFF 		bl	SysTick_Init
  60              	.LVL3:
  31:Core/Src/main.c ****     
  32:Core/Src/main.c ****     // –ò–Ω–∏—Ü–∏–∞–ª–∏–∑–∏—Ä—É–µ–º –®–ò–ú
  33:Core/Src/main.c ****     TIM1_PWM_Init();       // –ù–∞—Å—Ç—Ä–∞–∏–≤–∞–µ—Ç TIM1 –¥–ª—è –®–ò–ú –Ω–∞ PA8 –∏ PA9
  61              		.loc 1 33 5 view .LVU7
  62 0028 FFF7FEFF 		bl	TIM1_PWM_Init
  63              	.LVL4:
  34:Core/Src/main.c ****     
  35:Core/Src/main.c ****     
  36:Core/Src/main.c ****     left_wheel_direction(2);
  64              		.loc 1 36 5 view .LVU8
  65 002c 0220     		movs	r0, #2
  66 002e FFF7FEFF 		bl	left_wheel_direction
  67              	.LVL5:
  37:Core/Src/main.c ****     right_wheel_direction(2);
  68              		.loc 1 37 5 view .LVU9
  69 0032 0220     		movs	r0, #2
  70 0034 FFF7FEFF 		bl	right_wheel_direction
  71              	.LVL6:
  38:Core/Src/main.c ****     Set_PWM_Left_DutyCycle(65);
  72              		.loc 1 38 5 view .LVU10
  73 0038 4120     		movs	r0, #65
  74 003a FFF7FEFF 		bl	Set_PWM_Left_DutyCycle
  75              	.LVL7:
  39:Core/Src/main.c ****     Set_PWM_Right_DutyCycle(65);
  76              		.loc 1 39 5 view .LVU11
ARM GAS  C:\Users\parni\AppData\Local\Temp\ccI4AHnY.s 			page 3


  77 003e 4120     		movs	r0, #65
  78 0040 FFF7FEFF 		bl	Set_PWM_Right_DutyCycle
  79              	.LVL8:
  80              	.L2:
  40:Core/Src/main.c ****     
  41:Core/Src/main.c ****    // moveForward(12.0); // –î–≤–∏–≥–∞–µ–º—Å—è –≤–ø–µ—Ä–µ–¥ –Ω–∞ 100 —Å–º
  42:Core/Src/main.c ****     while(1)
  81              		.loc 1 42 5 view .LVU12
  43:Core/Src/main.c ****     {
  44:Core/Src/main.c ****    
  45:Core/Src/main.c ****     }
  82              		.loc 1 45 5 view .LVU13
  42:Core/Src/main.c ****     {
  83              		.loc 1 42 10 view .LVU14
  84 0044 FEE7     		b	.L2
  85              	.L5:
  86 0046 00BF     		.align	2
  87              	.L4:
  88 0048 00380240 		.word	1073887232
  89              		.cfi_endproc
  90              	.LFE130:
  92              		.global	status_button
  93              		.section	.bss.status_button,"aw",%nobits
  96              	status_button:
  97 0000 00       		.space	1
  98              		.global	button_delay_counter
  99              		.section	.bss.button_delay_counter,"aw",%nobits
 100              		.align	1
 103              	button_delay_counter:
 104 0000 0000     		.space	2
 105              		.global	millis_counter
 106              		.section	.bss.millis_counter,"aw",%nobits
 107              		.align	2
 110              	millis_counter:
 111 0000 00000000 		.space	4
 112              		.global	right_delay_counter
 113              		.section	.bss.right_delay_counter,"aw",%nobits
 114              		.align	2
 117              	right_delay_counter:
 118 0000 00000000 		.space	4
 119              		.global	left_delay_counter
 120              		.section	.bss.left_delay_counter,"aw",%nobits
 121              		.align	2
 124              	left_delay_counter:
 125 0000 00000000 		.space	4
 126              		.global	right_encoder_ticks
 127              		.section	.bss.right_encoder_ticks,"aw",%nobits
 128              		.align	1
 131              	right_encoder_ticks:
 132 0000 0000     		.space	2
 133              		.global	left_encoder_ticks
 134              		.section	.bss.left_encoder_ticks,"aw",%nobits
 135              		.align	1
 138              	left_encoder_ticks:
 139 0000 0000     		.space	2
 140              		.global	pwm_state_pa9
 141              		.section	.bss.pwm_state_pa9,"aw",%nobits
ARM GAS  C:\Users\parni\AppData\Local\Temp\ccI4AHnY.s 			page 4


 144              	pwm_state_pa9:
 145 0000 00       		.space	1
 146              		.global	pwm_state_pa8
 147              		.section	.bss.pwm_state_pa8,"aw",%nobits
 150              	pwm_state_pa8:
 151 0000 00       		.space	1
 152              		.text
 153              	.Letext0:
 154              		.file 2 "C:/SysGCC/arm-eabi/arm-none-eabi/include/machine/_default_types.h"
 155              		.file 3 "C:/SysGCC/arm-eabi/arm-none-eabi/include/sys/_stdint.h"
 156              		.file 4 "Core/Inc/..\\..\\CMSIS\\Devices\\STM32F4xx\\Inc\\STM32F411xE\\stm32f411xe.h"
 157              		.file 5 "Core/Inc/utils.h"
 158              		.file 6 "Core/Inc/init.h"
ARM GAS  C:\Users\parni\AppData\Local\Temp\ccI4AHnY.s 			page 5


DEFINED SYMBOLS
                            *ABS*:00000000 main.c
C:\Users\parni\AppData\Local\Temp\ccI4AHnY.s:21     .text.main:00000000 $t
C:\Users\parni\AppData\Local\Temp\ccI4AHnY.s:27     .text.main:00000000 main
C:\Users\parni\AppData\Local\Temp\ccI4AHnY.s:88     .text.main:00000048 $d
C:\Users\parni\AppData\Local\Temp\ccI4AHnY.s:96     .bss.status_button:00000000 status_button
C:\Users\parni\AppData\Local\Temp\ccI4AHnY.s:97     .bss.status_button:00000000 $d
C:\Users\parni\AppData\Local\Temp\ccI4AHnY.s:103    .bss.button_delay_counter:00000000 button_delay_counter
C:\Users\parni\AppData\Local\Temp\ccI4AHnY.s:100    .bss.button_delay_counter:00000000 $d
C:\Users\parni\AppData\Local\Temp\ccI4AHnY.s:110    .bss.millis_counter:00000000 millis_counter
C:\Users\parni\AppData\Local\Temp\ccI4AHnY.s:107    .bss.millis_counter:00000000 $d
C:\Users\parni\AppData\Local\Temp\ccI4AHnY.s:117    .bss.right_delay_counter:00000000 right_delay_counter
C:\Users\parni\AppData\Local\Temp\ccI4AHnY.s:114    .bss.right_delay_counter:00000000 $d
C:\Users\parni\AppData\Local\Temp\ccI4AHnY.s:124    .bss.left_delay_counter:00000000 left_delay_counter
C:\Users\parni\AppData\Local\Temp\ccI4AHnY.s:121    .bss.left_delay_counter:00000000 $d
C:\Users\parni\AppData\Local\Temp\ccI4AHnY.s:131    .bss.right_encoder_ticks:00000000 right_encoder_ticks
C:\Users\parni\AppData\Local\Temp\ccI4AHnY.s:128    .bss.right_encoder_ticks:00000000 $d
C:\Users\parni\AppData\Local\Temp\ccI4AHnY.s:138    .bss.left_encoder_ticks:00000000 left_encoder_ticks
C:\Users\parni\AppData\Local\Temp\ccI4AHnY.s:135    .bss.left_encoder_ticks:00000000 $d
C:\Users\parni\AppData\Local\Temp\ccI4AHnY.s:144    .bss.pwm_state_pa9:00000000 pwm_state_pa9
C:\Users\parni\AppData\Local\Temp\ccI4AHnY.s:145    .bss.pwm_state_pa9:00000000 $d
C:\Users\parni\AppData\Local\Temp\ccI4AHnY.s:150    .bss.pwm_state_pa8:00000000 pwm_state_pa8
C:\Users\parni\AppData\Local\Temp\ccI4AHnY.s:151    .bss.pwm_state_pa8:00000000 $d

UNDEFINED SYMBOLS
GPIO_Init_Ports
ITR_Init
RCC_Init
SysTick_Init
TIM1_PWM_Init
left_wheel_direction
right_wheel_direction
Set_PWM_Left_DutyCycle
Set_PWM_Right_DutyCycle
